target datalayout = "e-m:e-p270:32:32-p271:32:32-p272:64:64-i64:64-i128:128-f80:128-n8:16:32:64-S128"
target triple = "x86_64-pc-linux-gnu"

%struct.pm_buffer_t = type { i64, i64, ptr }

; Function Attrs: alwaysinline nounwind
define internal ptr @memcpy.inline(ptr noalias nonnull %0, ptr noalias nonnull %1, i64 %2) #4 {
  %4 = alloca ptr, align 8
  %5 = alloca ptr, align 8
  %6 = alloca i64, align 8
  store ptr %0, ptr %4, align 8, !tbaa !7
  store ptr %1, ptr %5, align 8, !tbaa !7
  store i64 %2, ptr %6, align 8, !tbaa !11
  %7 = load ptr, ptr %4, align 8, !tbaa !7
  %8 = load ptr, ptr %5, align 8, !tbaa !7
  %9 = load i64, ptr %6, align 8, !tbaa !11
  %10 = load ptr, ptr %4, align 8, !tbaa !7
  %11 = call i64 @llvm.objectsize.i64.p0(ptr %10, i1 false, i1 true, i1 false)
  %12 = call ptr @__memcpy_chk(ptr noundef %7, ptr noundef %8, i64 noundef %9, i64 noundef %11) #13
  ret ptr %12
}

; Function Attrs: inlinehint nounwind sspstrong uwtable
define internal zeroext i1 @pm_buffer_append_length(ptr noundef %0, i64 noundef %1) #3 {
  %3 = alloca i1, align 1
  %4 = alloca ptr, align 8
  %5 = alloca i64, align 8
  %6 = alloca i64, align 8
  %7 = alloca i32, align 4
  store ptr %0, ptr %4, align 8, !tbaa !7
  store i64 %1, ptr %5, align 8, !tbaa !11
  call void @llvm.lifetime.start.p0(i64 8, ptr %6) #13
  %8 = load ptr, ptr %4, align 8, !tbaa !7
  %9 = getelementptr inbounds nuw %struct.pm_buffer_t, ptr %8, i32 0, i32 0
  %10 = load i64, ptr %9, align 8, !tbaa !13
  %11 = load i64, ptr %5, align 8, !tbaa !11
  %12 = add i64 %10, %11
  store i64 %12, ptr %6, align 8, !tbaa !11
  %13 = load i64, ptr %6, align 8, !tbaa !11
  %14 = load ptr, ptr %4, align 8, !tbaa !7
  %15 = getelementptr inbounds nuw %struct.pm_buffer_t, ptr %14, i32 0, i32 1
  %16 = load i64, ptr %15, align 8, !tbaa !16
  %17 = icmp ugt i64 %13, %16
  br i1 %17, label %18, label %54

18:                                               ; preds = %2
  %19 = load ptr, ptr %4, align 8, !tbaa !7
  %20 = getelementptr inbounds nuw %struct.pm_buffer_t, ptr %19, i32 0, i32 1
  %21 = load i64, ptr %20, align 8, !tbaa !16
  %22 = icmp eq i64 %21, 0
  br i1 %22, label %23, label %26

23:                                               ; preds = %18
  %24 = load ptr, ptr %4, align 8, !tbaa !7
  %25 = getelementptr inbounds nuw %struct.pm_buffer_t, ptr %24, i32 0, i32 1
  store i64 1, ptr %25, align 8, !tbaa !16
  br label %26

26:                                               ; preds = %23, %18
  br label %27

27:                                               ; preds = %33, %26
  %28 = load i64, ptr %6, align 8, !tbaa !11
  %29 = load ptr, ptr %4, align 8, !tbaa !7
  %30 = getelementptr inbounds nuw %struct.pm_buffer_t, ptr %29, i32 0, i32 1
  %31 = load i64, ptr %30, align 8, !tbaa !16
  %32 = icmp ugt i64 %28, %31
  br i1 %32, label %33, label %38

33:                                               ; preds = %27
  %34 = load ptr, ptr %4, align 8, !tbaa !7
  %35 = getelementptr inbounds nuw %struct.pm_buffer_t, ptr %34, i32 0, i32 1
  %36 = load i64, ptr %35, align 8, !tbaa !16
  %37 = mul i64 %36, 2
  store i64 %37, ptr %35, align 8, !tbaa !16
  br label %27, !llvm.loop !18

38:                                               ; preds = %27
  %39 = load ptr, ptr %4, align 8, !tbaa !7
  %40 = getelementptr inbounds nuw %struct.pm_buffer_t, ptr %39, i32 0, i32 2
  %41 = load ptr, ptr %40, align 8, !tbaa !17
  %42 = load ptr, ptr %4, align 8, !tbaa !7
  %43 = getelementptr inbounds nuw %struct.pm_buffer_t, ptr %42, i32 0, i32 1
  %44 = load i64, ptr %43, align 8, !tbaa !16
  %45 = call ptr @realloc(ptr noundef %41, i64 noundef %44) #14
  %46 = load ptr, ptr %4, align 8, !tbaa !7
  %47 = getelementptr inbounds nuw %struct.pm_buffer_t, ptr %46, i32 0, i32 2
  store ptr %45, ptr %47, align 8, !tbaa !17
  %48 = load ptr, ptr %4, align 8, !tbaa !7
  %49 = getelementptr inbounds nuw %struct.pm_buffer_t, ptr %48, i32 0, i32 2
  %50 = load ptr, ptr %49, align 8, !tbaa !17
  %51 = icmp eq ptr %50, null
  br i1 %51, label %52, label %53

52:                                               ; preds = %38
  store i1 false, ptr %3, align 1
  store i32 1, ptr %7, align 4
  br label %58

53:                                               ; preds = %38
  br label %54

54:                                               ; preds = %53, %2
  %55 = load i64, ptr %6, align 8, !tbaa !11
  %56 = load ptr, ptr %4, align 8, !tbaa !7
  %57 = getelementptr inbounds nuw %struct.pm_buffer_t, ptr %56, i32 0, i32 0
  store i64 %55, ptr %57, align 8, !tbaa !13
  store i1 true, ptr %3, align 1
  store i32 1, ptr %7, align 4
  br label %58

58:                                               ; preds = %54, %52
  call void @llvm.lifetime.end.p0(i64 8, ptr %6) #13
  %59 = load i1, ptr %3, align 1
  ret i1 %59
}

; Function Attrs: inlinehint nounwind sspstrong uwtable
define internal void @pm_buffer_append(ptr noundef %0, ptr noundef %1, i64 noundef %2) #3 {
  %4 = alloca ptr, align 8
  %5 = alloca ptr, align 8
  %6 = alloca i64, align 8
  %7 = alloca i64, align 8
  store ptr %0, ptr %4, align 8, !tbaa !7
  store ptr %1, ptr %5, align 8, !tbaa !7
  store i64 %2, ptr %6, align 8, !tbaa !11
  call void @llvm.lifetime.start.p0(i64 8, ptr %7) #13
  %8 = load ptr, ptr %4, align 8, !tbaa !7
  %9 = getelementptr inbounds nuw %struct.pm_buffer_t, ptr %8, i32 0, i32 0
  %10 = load i64, ptr %9, align 8, !tbaa !13
  store i64 %10, ptr %7, align 8, !tbaa !11
  %11 = load ptr, ptr %4, align 8, !tbaa !7
  %12 = load i64, ptr %6, align 8, !tbaa !11
  %13 = call zeroext i1 @pm_buffer_append_length(ptr noundef %11, i64 noundef %12)
  br i1 %13, label %14, label %23

14:                                               ; preds = %3
  %15 = load ptr, ptr %4, align 8, !tbaa !7
  %16 = getelementptr inbounds nuw %struct.pm_buffer_t, ptr %15, i32 0, i32 2
  %17 = load ptr, ptr %16, align 8, !tbaa !17
  %18 = load i64, ptr %7, align 8, !tbaa !11
  %19 = getelementptr i8, ptr %17, i64 %18
  %20 = load ptr, ptr %5, align 8, !tbaa !7
  %21 = load i64, ptr %6, align 8, !tbaa !11
  %22 = call ptr @memcpy.inline(ptr noundef %19, ptr noundef %20, i64 noundef %21) #13
  br label %23

23:                                               ; preds = %14, %3
  call void @llvm.lifetime.end.p0(i64 8, ptr %7) #13
  ret void
}

; Function Attrs: nounwind sspstrong uwtable
define hidden void @pm_buffer_append_bytes(ptr noundef %0, ptr noundef %1, i64 noundef %2) #0 {
  %4 = alloca ptr, align 8
  %5 = alloca ptr, align 8
  %6 = alloca i64, align 8
  store ptr %0, ptr %4, align 8, !tbaa !7
  store ptr %1, ptr %5, align 8, !tbaa !22
  store i64 %2, ptr %6, align 8, !tbaa !11
  %7 = load ptr, ptr %4, align 8, !tbaa !7
  %8 = load ptr, ptr %5, align 8, !tbaa !22
  %9 = load i64, ptr %6, align 8, !tbaa !11
  call void @pm_buffer_append(ptr noundef %7, ptr noundef %8, i64 noundef %9)
  ret void
}

; Function Attrs: nounwind sspstrong uwtable
define hidden void @pm_buffer_append_byte(ptr noundef %0, i8 noundef zeroext %1) #0 {
  %3 = alloca ptr, align 8
  %4 = alloca i8, align 1
  %5 = alloca ptr, align 8
  store ptr %0, ptr %3, align 8, !tbaa !7
  store i8 %1, ptr %4, align 1, !tbaa !25
  call void @llvm.lifetime.start.p0(i64 8, ptr %5) #13
  store ptr %4, ptr %5, align 8, !tbaa !7
  %6 = load ptr, ptr %3, align 8, !tbaa !7
  %7 = load ptr, ptr %5, align 8, !tbaa !7
  call void @pm_buffer_append(ptr noundef %6, ptr noundef %7, i64 noundef 1)
  call void @llvm.lifetime.end.p0(i64 8, ptr %5) #13
  ret void
}

; Function Attrs: nounwind sspstrong uwtable
define hidden zeroext i1 @pm_buffer_append_unicode_codepoint(ptr noundef %0, i32 noundef %1) #0 {
  %3 = alloca i1, align 1
  %4 = alloca ptr, align 8
  %5 = alloca i32, align 4
  %6 = alloca [2 x i8], align 1
  %7 = alloca [3 x i8], align 1
  %8 = alloca [4 x i8], align 1
  store ptr %0, ptr %4, align 8, !tbaa !7
  store i32 %1, ptr %5, align 4, !tbaa !20
  %9 = load i32, ptr %5, align 4, !tbaa !20
  %10 = icmp ule i32 %9, 127
  br i1 %10, label %11, label %15

11:                                               ; preds = %2
  %12 = load ptr, ptr %4, align 8, !tbaa !7
  %13 = load i32, ptr %5, align 4, !tbaa !20
  %14 = trunc i32 %13 to i8
  call void @pm_buffer_append_byte(ptr noundef %12, i8 noundef zeroext %14)
  store i1 true, ptr %3, align 1
  br label %82

15:                                               ; preds = %2
  %16 = load i32, ptr %5, align 4, !tbaa !20
  %17 = icmp ule i32 %16, 2047
  br i1 %17, label %18, label %31

18:                                               ; preds = %15
  call void @llvm.lifetime.start.p0(i64 2, ptr %6) #13
  %19 = load i32, ptr %5, align 4, !tbaa !20
  %20 = lshr i32 %19, 6
  %21 = and i32 %20, 63
  %22 = or i32 192, %21
  %23 = trunc i32 %22 to i8
  store i8 %23, ptr %6, align 1, !tbaa !25
  %24 = getelementptr inbounds i8, ptr %6, i64 1
  %25 = load i32, ptr %5, align 4, !tbaa !20
  %26 = and i32 %25, 63
  %27 = or i32 128, %26
  %28 = trunc i32 %27 to i8
  store i8 %28, ptr %24, align 1, !tbaa !25
  %29 = load ptr, ptr %4, align 8, !tbaa !7
  %30 = getelementptr inbounds [2 x i8], ptr %6, i64 0, i64 0
  call void @pm_buffer_append_bytes(ptr noundef %29, ptr noundef %30, i64 noundef 2)
  store i1 true, ptr %3, align 1
  call void @llvm.lifetime.end.p0(i64 2, ptr %6) #13
  br label %82

31:                                               ; preds = %15
  %32 = load i32, ptr %5, align 4, !tbaa !20
  %33 = icmp ule i32 %32, 65535
  br i1 %33, label %34, label %53

34:                                               ; preds = %31
  call void @llvm.lifetime.start.p0(i64 3, ptr %7) #13
  %35 = load i32, ptr %5, align 4, !tbaa !20
  %36 = lshr i32 %35, 12
  %37 = and i32 %36, 63
  %38 = or i32 224, %37
  %39 = trunc i32 %38 to i8
  store i8 %39, ptr %7, align 1, !tbaa !25
  %40 = getelementptr inbounds i8, ptr %7, i64 1
  %41 = load i32, ptr %5, align 4, !tbaa !20
  %42 = lshr i32 %41, 6
  %43 = and i32 %42, 63
  %44 = or i32 128, %43
  %45 = trunc i32 %44 to i8
  store i8 %45, ptr %40, align 1, !tbaa !25
  %46 = getelementptr inbounds i8, ptr %7, i64 2
  %47 = load i32, ptr %5, align 4, !tbaa !20
  %48 = and i32 %47, 63
  %49 = or i32 128, %48
  %50 = trunc i32 %49 to i8
  store i8 %50, ptr %46, align 1, !tbaa !25
  %51 = load ptr, ptr %4, align 8, !tbaa !7
  %52 = getelementptr inbounds [3 x i8], ptr %7, i64 0, i64 0
  call void @pm_buffer_append_bytes(ptr noundef %51, ptr noundef %52, i64 noundef 3)
  store i1 true, ptr %3, align 1
  call void @llvm.lifetime.end.p0(i64 3, ptr %7) #13
  br label %82

53:                                               ; preds = %31
  %54 = load i32, ptr %5, align 4, !tbaa !20
  %55 = icmp ule i32 %54, 1114111
  br i1 %55, label %56, label %81

56:                                               ; preds = %53
  call void @llvm.lifetime.start.p0(i64 4, ptr %8) #13
  %57 = load i32, ptr %5, align 4, !tbaa !20
  %58 = lshr i32 %57, 18
  %59 = and i32 %58, 63
  %60 = or i32 240, %59
  %61 = trunc i32 %60 to i8
  store i8 %61, ptr %8, align 1, !tbaa !25
  %62 = getelementptr inbounds i8, ptr %8, i64 1
  %63 = load i32, ptr %5, align 4, !tbaa !20
  %64 = lshr i32 %63, 12
  %65 = and i32 %64, 63
  %66 = or i32 128, %65
  %67 = trunc i32 %66 to i8
  store i8 %67, ptr %62, align 1, !tbaa !25
  %68 = getelementptr inbounds i8, ptr %8, i64 2
  %69 = load i32, ptr %5, align 4, !tbaa !20
  %70 = lshr i32 %69, 6
  %71 = and i32 %70, 63
  %72 = or i32 128, %71
  %73 = trunc i32 %72 to i8
  store i8 %73, ptr %68, align 1, !tbaa !25
  %74 = getelementptr inbounds i8, ptr %8, i64 3
  %75 = load i32, ptr %5, align 4, !tbaa !20
  %76 = and i32 %75, 63
  %77 = or i32 128, %76
  %78 = trunc i32 %77 to i8
  store i8 %78, ptr %74, align 1, !tbaa !25
  %79 = load ptr, ptr %4, align 8, !tbaa !7
  %80 = getelementptr inbounds [4 x i8], ptr %8, i64 0, i64 0
  call void @pm_buffer_append_bytes(ptr noundef %79, ptr noundef %80, i64 noundef 4)
  store i1 true, ptr %3, align 1
  call void @llvm.lifetime.end.p0(i64 4, ptr %8) #13
  br label %82

81:                                               ; preds = %53
  store i1 false, ptr %3, align 1
  br label %82

82:                                               ; preds = %81, %56, %34, %18, %11
  %83 = load i1, ptr %3, align 1
  ret i1 %83
}