; Function Attrs: nounwind sspstrong uwtable
define hidden noundef zeroext i1 @pm_buffer_append_unicode_codepoint(ptr noundef captures(none) %0, i32 noundef %1) local_unnamed_addr #4 {
  %3 = icmp ult i32 %1, 128
  br i1 %3, label %4, label %27

4:                                                ; preds = %2
  %5 = trunc nuw nsw i32 %1 to i8
  %6 = load i64, ptr %0, align 8, !tbaa !7
  %7 = add i64 %6, 1
  %8 = getelementptr inbounds nuw i8, ptr %0, i64 8
  %9 = load i64, ptr %8, align 8, !tbaa !14
  %10 = icmp ugt i64 %7, %9
  br i1 %10, label %11, label %._crit_edge.i.i

._crit_edge.i.i:                                  ; preds = %4
  %.phi.trans.insert.i.i = getelementptr inbounds nuw i8, ptr %0, i64 16
  %.pre.i.i = load ptr, ptr %.phi.trans.insert.i.i, align 8, !tbaa !15
  br label %24

11:                                               ; preds = %4
  %12 = icmp eq i64 %9, 0
  br i1 %12, label %13, label %14

13:                                               ; preds = %11
  store i64 1, ptr %8, align 8, !tbaa !14
  br label %14

14:                                               ; preds = %13, %11
  %.promoted.i.i.i = phi i64 [ 1, %13 ], [ %9, %11 ]
  %15 = icmp ugt i64 %7, %.promoted.i.i.i
  br i1 %15, label %.lr.ph.i.i.i, label %19

.lr.ph.i.i.i:                                     ; preds = %14, %.lr.ph.i.i.i
  %16 = phi i64 [ %17, %.lr.ph.i.i.i ], [ %.promoted.i.i.i, %14 ]
  %17 = shl i64 %16, 1
  %18 = icmp ugt i64 %7, %17
  br i1 %18, label %.lr.ph.i.i.i, label %._crit_edge.i.i.i, !llvm.loop !16

._crit_edge.i.i.i:                                ; preds = %.lr.ph.i.i.i
  store i64 %17, ptr %8, align 8, !tbaa !14
  br label %19

19:                                               ; preds = %._crit_edge.i.i.i, %14
  %.lcssa.i.i.i = phi i64 [ %17, %._crit_edge.i.i.i ], [ %.promoted.i.i.i, %14 ]
  %20 = getelementptr inbounds nuw i8, ptr %0, i64 16
  %21 = load ptr, ptr %20, align 8, !tbaa !15
  %22 = tail call ptr @realloc(ptr noundef %21, i64 noundef %.lcssa.i.i.i) #18
  store ptr %22, ptr %20, align 8, !tbaa !15
  %23 = icmp eq ptr %22, null
  br i1 %23, label %pm_buffer_append_byte.exit, label %24

24:                                               ; preds = %19, %._crit_edge.i.i
  %25 = phi ptr [ %.pre.i.i, %._crit_edge.i.i ], [ %22, %19 ]
  store i64 %7, ptr %0, align 8, !tbaa !7
  %26 = getelementptr i8, ptr %25, i64 %6
  store i8 %5, ptr %26, align 1
  br label %pm_buffer_append_byte.exit

27:                                               ; preds = %2
  %28 = icmp ult i32 %1, 2048
  br i1 %28, label %29, label %55

29:                                               ; preds = %27
  %30 = lshr i32 %1, 6
  %31 = trunc nuw i32 %30 to i16
  %32 = trunc nuw i32 %1 to i16
  %33 = load i64, ptr %0, align 8, !tbaa !7
  %34 = add i64 %33, 2
  %35 = getelementptr inbounds nuw i8, ptr %0, i64 8
  %36 = load i64, ptr %35, align 8, !tbaa !14
  %37 = icmp ugt i64 %34, %36
  br i1 %37, label %38, label %._crit_edge.i.i19

._crit_edge.i.i19:                                ; preds = %29
  %.phi.trans.insert.i.i20 = getelementptr inbounds nuw i8, ptr %0, i64 16
  %.pre.i.i21 = load ptr, ptr %.phi.trans.insert.i.i20, align 8, !tbaa !15
  br label %51

38:                                               ; preds = %29
  %39 = icmp eq i64 %36, 0
  br i1 %39, label %40, label %41

40:                                               ; preds = %38
  store i64 1, ptr %35, align 8, !tbaa !14
  br label %41

41:                                               ; preds = %40, %38
  %.promoted.i.i.i22 = phi i64 [ 1, %40 ], [ %36, %38 ]
  %42 = icmp ugt i64 %34, %.promoted.i.i.i22
  br i1 %42, label %.lr.ph.i.i.i24, label %46

.lr.ph.i.i.i24:                                   ; preds = %41, %.lr.ph.i.i.i24
  %43 = phi i64 [ %44, %.lr.ph.i.i.i24 ], [ %.promoted.i.i.i22, %41 ]
  %44 = shl i64 %43, 1
  %45 = icmp ugt i64 %34, %44
  br i1 %45, label %.lr.ph.i.i.i24, label %._crit_edge.i.i.i25, !llvm.loop !16

._crit_edge.i.i.i25:                              ; preds = %.lr.ph.i.i.i24
  store i64 %44, ptr %35, align 8, !tbaa !14
  br label %46

46:                                               ; preds = %._crit_edge.i.i.i25, %41
  %.lcssa.i.i.i23 = phi i64 [ %44, %._crit_edge.i.i.i25 ], [ %.promoted.i.i.i22, %41 ]
  %47 = getelementptr inbounds nuw i8, ptr %0, i64 16
  %48 = load ptr, ptr %47, align 8, !tbaa !15
  %49 = tail call ptr @realloc(ptr noundef %48, i64 noundef %.lcssa.i.i.i23) #18
  store ptr %49, ptr %47, align 8, !tbaa !15
  %50 = icmp eq ptr %49, null
  br i1 %50, label %pm_buffer_append_byte.exit, label %51

51:                                               ; preds = %46, %._crit_edge.i.i19
  %52 = phi ptr [ %.pre.i.i21, %._crit_edge.i.i19 ], [ %49, %46 ]
  store i64 %34, ptr %0, align 8, !tbaa !7
  %53 = getelementptr i8, ptr %52, i64 %33
  %54 = shl i16 %32, 8
  %.sroa.461.0.insert.ext = and i16 %54, 16128
  %.sroa.060.0.insert.ext = or disjoint i16 %.sroa.461.0.insert.ext, %31
  %.sroa.060.0.insert.insert = or disjoint i16 %.sroa.060.0.insert.ext, -32576
  store i16 %.sroa.060.0.insert.insert, ptr %53, align 1
  br label %pm_buffer_append_byte.exit

55:                                               ; preds = %27
  %56 = icmp ult i32 %1, 65536
  br i1 %56, label %57, label %89

57:                                               ; preds = %55
  %58 = lshr i32 %1, 12
  %59 = trunc nuw i32 %58 to i8
  %60 = or disjoint i8 %59, -32
  %61 = lshr i32 %1, 6
  %62 = trunc i32 %61 to i8
  %63 = and i8 %62, 63
  %64 = or disjoint i8 %63, -128
  %65 = trunc i32 %1 to i8
  %66 = and i8 %65, 63
  %67 = or disjoint i8 %66, -128
  %68 = load i64, ptr %0, align 8, !tbaa !7
  %69 = add i64 %68, 3
  %70 = getelementptr inbounds nuw i8, ptr %0, i64 8
  %71 = load i64, ptr %70, align 8, !tbaa !14
  %72 = icmp ugt i64 %69, %71
  br i1 %72, label %73, label %._crit_edge.i.i26

._crit_edge.i.i26:                                ; preds = %57
  %.phi.trans.insert.i.i27 = getelementptr inbounds nuw i8, ptr %0, i64 16
  %.pre.i.i28 = load ptr, ptr %.phi.trans.insert.i.i27, align 8, !tbaa !15
  br label %86

73:                                               ; preds = %57
  %74 = icmp eq i64 %71, 0
  br i1 %74, label %75, label %76

75:                                               ; preds = %73
  store i64 1, ptr %70, align 8, !tbaa !14
  br label %76

76:                                               ; preds = %75, %73
  %.promoted.i.i.i29 = phi i64 [ 1, %75 ], [ %71, %73 ]
  %77 = icmp ugt i64 %69, %.promoted.i.i.i29
  br i1 %77, label %.lr.ph.i.i.i31, label %81

.lr.ph.i.i.i31:                                   ; preds = %76, %.lr.ph.i.i.i31
  %78 = phi i64 [ %79, %.lr.ph.i.i.i31 ], [ %.promoted.i.i.i29, %76 ]
  %79 = shl i64 %78, 1
  %80 = icmp ugt i64 %69, %79
  br i1 %80, label %.lr.ph.i.i.i31, label %._crit_edge.i.i.i32, !llvm.loop !16

._crit_edge.i.i.i32:                              ; preds = %.lr.ph.i.i.i31
  store i64 %79, ptr %70, align 8, !tbaa !14
  br label %81

81:                                               ; preds = %._crit_edge.i.i.i32, %76
  %.lcssa.i.i.i30 = phi i64 [ %79, %._crit_edge.i.i.i32 ], [ %.promoted.i.i.i29, %76 ]
  %82 = getelementptr inbounds nuw i8, ptr %0, i64 16
  %83 = load ptr, ptr %82, align 8, !tbaa !15
  %84 = tail call ptr @realloc(ptr noundef %83, i64 noundef %.lcssa.i.i.i30) #18
  store ptr %84, ptr %82, align 8, !tbaa !15
  %85 = icmp eq ptr %84, null
  br i1 %85, label %pm_buffer_append_byte.exit, label %86

86:                                               ; preds = %81, %._crit_edge.i.i26
  %87 = phi ptr [ %.pre.i.i28, %._crit_edge.i.i26 ], [ %84, %81 ]
  store i64 %69, ptr %0, align 8, !tbaa !7
  %88 = getelementptr i8, ptr %87, i64 %68
  store i8 %60, ptr %88, align 1
  %.sroa.458.0..sroa_idx = getelementptr inbounds nuw i8, ptr %88, i64 1
  store i8 %64, ptr %.sroa.458.0..sroa_idx, align 1
  %.sroa.559.0..sroa_idx = getelementptr inbounds nuw i8, ptr %88, i64 2
  store i8 %67, ptr %.sroa.559.0..sroa_idx, align 1
  br label %pm_buffer_append_byte.exit

89:                                               ; preds = %55
  %90 = icmp ult i32 %1, 1114112
  br i1 %90, label %91, label %pm_buffer_append_byte.exit

91:                                               ; preds = %89
  %92 = lshr i32 %1, 18
  %93 = load i64, ptr %0, align 8, !tbaa !7
  %94 = add i64 %93, 4
  %95 = getelementptr inbounds nuw i8, ptr %0, i64 8
  %96 = load i64, ptr %95, align 8, !tbaa !14
  %97 = icmp ugt i64 %94, %96
  br i1 %97, label %98, label %._crit_edge.i.i34

._crit_edge.i.i34:                                ; preds = %91
  %.phi.trans.insert.i.i35 = getelementptr inbounds nuw i8, ptr %0, i64 16
  %.pre.i.i36 = load ptr, ptr %.phi.trans.insert.i.i35, align 8, !tbaa !15
  br label %111

98:                                               ; preds = %91
  %99 = icmp eq i64 %96, 0
  br i1 %99, label %100, label %101

100:                                              ; preds = %98
  store i64 1, ptr %95, align 8, !tbaa !14
  br label %101

101:                                              ; preds = %100, %98
  %.promoted.i.i.i37 = phi i64 [ 1, %100 ], [ %96, %98 ]
  %102 = icmp ugt i64 %94, %.promoted.i.i.i37
  br i1 %102, label %.lr.ph.i.i.i39, label %106

.lr.ph.i.i.i39:                                   ; preds = %101, %.lr.ph.i.i.i39
  %103 = phi i64 [ %104, %.lr.ph.i.i.i39 ], [ %.promoted.i.i.i37, %101 ]
  %104 = shl i64 %103, 1
  %105 = icmp ugt i64 %94, %104
  br i1 %105, label %.lr.ph.i.i.i39, label %._crit_edge.i.i.i40, !llvm.loop !16

._crit_edge.i.i.i40:                              ; preds = %.lr.ph.i.i.i39
  store i64 %104, ptr %95, align 8, !tbaa !14
  br label %106

106:                                              ; preds = %._crit_edge.i.i.i40, %101
  %.lcssa.i.i.i38 = phi i64 [ %104, %._crit_edge.i.i.i40 ], [ %.promoted.i.i.i37, %101 ]
  %107 = getelementptr inbounds nuw i8, ptr %0, i64 16
  %108 = load ptr, ptr %107, align 8, !tbaa !15
  %109 = tail call ptr @realloc(ptr noundef %108, i64 noundef %.lcssa.i.i.i38) #18
  store ptr %109, ptr %107, align 8, !tbaa !15
  %110 = icmp eq ptr %109, null
  br i1 %110, label %pm_buffer_append_byte.exit, label %111

111:                                              ; preds = %106, %._crit_edge.i.i34
  %112 = phi ptr [ %.pre.i.i36, %._crit_edge.i.i34 ], [ %109, %106 ]
  store i64 %94, ptr %0, align 8, !tbaa !7
  %113 = getelementptr i8, ptr %112, i64 %93
  %114 = shl i32 %1, 24
  %.sroa.6.0.insert.ext = and i32 %114, 1056964608
  %115 = shl nuw nsw i32 %1, 10
  %.sroa.5.0.insert.ext = and i32 %115, 4128768
  %.sroa.5.0.insert.shift = or disjoint i32 %.sroa.6.0.insert.ext, %.sroa.5.0.insert.ext
  %116 = lshr i32 %1, 4
  %.sroa.4.0.insert.ext = and i32 %116, 16128
  %.sroa.4.0.insert.shift = or disjoint i32 %.sroa.5.0.insert.shift, %.sroa.4.0.insert.ext
  %.sroa.0.0.insert.ext = or disjoint i32 %.sroa.4.0.insert.shift, %92
  %.sroa.0.0.insert.insert = or disjoint i32 %.sroa.0.0.insert.ext, -2139062032
  store i32 %.sroa.0.0.insert.insert, ptr %113, align 1
  br label %pm_buffer_append_byte.exit

pm_buffer_append_byte.exit:                       ; preds = %111, %106, %86, %81, %51, %46, %24, %19, %89
  %.0 = phi i1 [ false, %89 ], [ true, %19 ], [ true, %24 ], [ true, %46 ], [ true, %51 ], [ true, %81 ], [ true, %86 ], [ true, %106 ], [ true, %111 ]
  ret i1 %.0
}